; Function Attrs: mustprogress uwtable
define void @_ZN5faiss16RangeQueryResult3addEfl(ptr nocapture noundef nonnull align 8 dereferenceable(24) %0, float noundef %1, i64 noundef %2) local_unnamed_addr #0 align 2 {
  %4 = getelementptr inbounds i8, ptr %0, i64 8
  %5 = load i64, ptr %4, align 8
  %6 = add i64 %5, 1
  store i64 %6, ptr %4, align 8
  %7 = getelementptr inbounds i8, ptr %0, i64 16
  %8 = load ptr, ptr %7, align 8
  %9 = getelementptr inbounds i8, ptr %8, i64 32
  %10 = load i64, ptr %9, align 8
  %11 = load i64, ptr %8, align 8
  %12 = icmp eq i64 %10, %11
  br i1 %12, label %13, label %_ZN5faiss10BufferList3addElf.exit

13:                                               ; preds = %3
  tail call void @_ZN5faiss10BufferList13append_bufferEv(ptr noundef nonnull align 8 dereferenceable(40) %8)
  %.pre.i = load i64, ptr %9, align 8
  br label %_ZN5faiss10BufferList3addElf.exit

_ZN5faiss10BufferList3addElf.exit:                ; preds = %3, %13
  %14 = phi i64 [ %.pre.i, %13 ], [ %10, %3 ]
  %15 = getelementptr inbounds i8, ptr %8, i64 16
  %16 = load ptr, ptr %15, align 8
  %17 = getelementptr inbounds i8, ptr %16, i64 -16
  %18 = load ptr, ptr %17, align 8
  %19 = getelementptr inbounds i64, ptr %18, i64 %14
  store i64 %2, ptr %19, align 8
  %20 = getelementptr inbounds i8, ptr %16, i64 -8
  %21 = load ptr, ptr %20, align 8
  %22 = load i64, ptr %9, align 8
  %23 = getelementptr inbounds float, ptr %21, i64 %22
  store float %1, ptr %23, align 4
  %24 = load i64, ptr %9, align 8
  %25 = add i64 %24, 1
  store i64 %25, ptr %9, align 8
  ret void
}